; ModuleID = 'source-C-CXX/14/2243.cpp'
source_filename = "source-C-CXX/14/2243.cpp"
target datalayout = "e-m:e-p270:32:32-p271:32:32-p272:64:64-i64:64-f80:128-n8:16:32:64-S128"
target triple = "x86_64-pc-linux-gnu"

%"class.std::ios_base::Init" = type { i8 }
%"class.std::basic_istream" = type { i32 (...)**, i64, %"class.std::basic_ios" }
%"class.std::basic_ios" = type { %"class.std::ios_base", %"class.std::basic_ostream"*, i8, i8, %"class.std::basic_streambuf"*, %"class.std::ctype"*, %"class.std::num_put"*, %"class.std::num_get"* }
%"class.std::ios_base" = type { i32 (...)**, i64, i64, i32, i32, i32, %"struct.std::ios_base::_Callback_list"*, %"struct.std::ios_base::_Words", [8 x %"struct.std::ios_base::_Words"], i32, %"struct.std::ios_base::_Words"*, %"class.std::locale" }
%"struct.std::ios_base::_Callback_list" = type { %"struct.std::ios_base::_Callback_list"*, void (i32, %"class.std::ios_base"*, i32)*, i32, i32 }
%"struct.std::ios_base::_Words" = type { i8*, i64 }
%"class.std::locale" = type { %"class.std::locale::_Impl"* }
%"class.std::locale::_Impl" = type { i32, %"class.std::locale::facet"**, i64, %"class.std::locale::facet"**, i8** }
%"class.std::locale::facet" = type <{ i32 (...)**, i32, [4 x i8] }>
%"class.std::basic_ostream" = type { i32 (...)**, %"class.std::basic_ios" }
%"class.std::basic_streambuf" = type { i32 (...)**, i8*, i8*, i8*, i8*, i8*, i8*, %"class.std::locale" }
%"class.std::ctype" = type <{ %"class.std::locale::facet.base", [4 x i8], %struct.__locale_struct*, i8, [7 x i8], i32*, i32*, i16*, i8, [256 x i8], [256 x i8], i8, [6 x i8] }>
%"class.std::locale::facet.base" = type <{ i32 (...)**, i32 }>
%struct.__locale_struct = type { [13 x %struct.__locale_data*], i16*, i32*, i32*, [13 x i8*] }
%struct.__locale_data = type opaque
%"class.std::num_put" = type { %"class.std::locale::facet.base", [4 x i8] }
%"class.std::num_get" = type { %"class.std::locale::facet.base", [4 x i8] }

@_ZStL8__ioinit = internal global %"class.std::ios_base::Init" zeroinitializer, align 1
@__dso_handle = external hidden global i8
@_ZSt3cin = external global %"class.std::basic_istream", align 8
@_ZSt4cout = external global %"class.std::basic_ostream", align 8
@llvm.global_ctors = appending global [1 x { i32, void ()*, i8* }] [{ i32, void ()*, i8* } { i32 65535, void ()* @_GLOBAL__sub_I_2243.cpp, i8* null }]

declare void @_ZNSt8ios_base4InitC1Ev(%"class.std::ios_base::Init"* nonnull align 1 dereferenceable(1)) unnamed_addr #0

; Function Attrs: nounwind
declare void @_ZNSt8ios_base4InitD1Ev(%"class.std::ios_base::Init"* nonnull align 1 dereferenceable(1)) unnamed_addr #1

; Function Attrs: nofree nounwind
declare i32 @__cxa_atexit(void (i8*)*, i8*, i8*) local_unnamed_addr #2

; Function Attrs: mustprogress norecurse sspstrong uwtable
define dso_local i32 @main() local_unnamed_addr #3 {
  %1 = alloca i32, align 4
  %2 = alloca [1002 x [1002 x i32]], align 16
  %3 = bitcast i32* %1 to i8*
  call void @llvm.lifetime.start.p0i8(i64 4, i8* nonnull %3) #7
  %4 = bitcast [1002 x [1002 x i32]]* %2 to i8*
  call void @llvm.lifetime.start.p0i8(i64 4016016, i8* nonnull %4) #7
  call void @llvm.memset.p0i8.i64(i8* noundef nonnull align 16 dereferenceable(4016016) %4, i8 0, i64 4016016, i1 false)
  %5 = call nonnull align 8 dereferenceable(16) %"class.std::basic_istream"* @_ZNSirsERi(%"class.std::basic_istream"* nonnull align 8 dereferenceable(16) @_ZSt3cin, i32* nonnull align 4 dereferenceable(4) %1)
  %6 = load i32, i32* %1, align 4, !tbaa !5
  %7 = icmp slt i32 %6, 1
  br i1 %7, label %70, label %8

8:                                                ; preds = %0, %26
  %9 = phi i32 [ %27, %26 ], [ %6, %0 ]
  %10 = phi i64 [ %29, %26 ], [ 1, %0 ]
  %11 = icmp slt i32 %9, 1
  br i1 %11, label %26, label %18

12:                                               ; preds = %26
  %13 = icmp slt i32 %27, 1
  br i1 %13, label %70, label %14

14:                                               ; preds = %12
  %15 = add nuw i32 %27, 1
  %16 = add nuw i32 %27, 1
  %17 = zext i32 %15 to i64
  br label %31

18:                                               ; preds = %8, %18
  %19 = phi i64 [ %22, %18 ], [ 1, %8 ]
  %20 = getelementptr inbounds [1002 x [1002 x i32]], [1002 x [1002 x i32]]* %2, i64 0, i64 %10, i64 %19
  %21 = call nonnull align 8 dereferenceable(16) %"class.std::basic_istream"* @_ZNSirsERi(%"class.std::basic_istream"* nonnull align 8 dereferenceable(16) @_ZSt3cin, i32* nonnull align 4 dereferenceable(4) %20)
  %22 = add nuw nsw i64 %19, 1
  %23 = load i32, i32* %1, align 4, !tbaa !5
  %24 = sext i32 %23 to i64
  %25 = icmp slt i64 %19, %24
  br i1 %25, label %18, label %26, !llvm.loop !9

26:                                               ; preds = %18, %8
  %27 = phi i32 [ %9, %8 ], [ %23, %18 ]
  %28 = sext i32 %27 to i64
  %29 = add nuw nsw i64 %10, 1
  %30 = icmp slt i64 %10, %28
  br i1 %30, label %8, label %12, !llvm.loop !11

31:                                               ; preds = %14, %41
  %32 = phi i64 [ 1, %14 ], [ %42, %41 ]
  br label %33

33:                                               ; preds = %31, %38
  %34 = phi i64 [ 1, %31 ], [ %39, %38 ]
  %35 = getelementptr inbounds [1002 x [1002 x i32]], [1002 x [1002 x i32]]* %2, i64 0, i64 %32, i64 %34
  %36 = load i32, i32* %35, align 4, !tbaa !5
  %37 = icmp eq i32 %36, 0
  br i1 %37, label %44, label %38

38:                                               ; preds = %33
  %39 = add nuw nsw i64 %34, 1
  %40 = icmp eq i64 %39, %17
  br i1 %40, label %41, label %33, !llvm.loop !13

41:                                               ; preds = %38
  %42 = add nuw nsw i64 %32, 1
  %43 = icmp eq i64 %42, %17
  br i1 %43, label %48, label %31, !llvm.loop !14

44:                                               ; preds = %33
  %45 = trunc i64 %32 to i32
  %46 = trunc i64 %34 to i32
  %47 = xor i32 %46, -1
  br label %48

48:                                               ; preds = %41, %44
  %49 = phi i32 [ %45, %44 ], [ %16, %41 ]
  %50 = phi i32 [ %47, %44 ], [ undef, %41 ]
  %51 = icmp sgt i32 %27, 0
  br i1 %51, label %52, label %70

52:                                               ; preds = %48
  %53 = zext i32 %27 to i64
  br label %54

54:                                               ; preds = %52, %65
  %55 = phi i64 [ %53, %52 ], [ %66, %65 ]
  br label %56

56:                                               ; preds = %54, %62
  %57 = phi i32 [ %27, %54 ], [ %63, %62 ]
  %58 = zext i32 %57 to i64
  %59 = getelementptr inbounds [1002 x [1002 x i32]], [1002 x [1002 x i32]]* %2, i64 0, i64 %55, i64 %58
  %60 = load i32, i32* %59, align 4, !tbaa !5
  %61 = icmp eq i32 %60, 0
  br i1 %61, label %68, label %62

62:                                               ; preds = %56
  %63 = add nsw i32 %57, -1
  %64 = icmp sgt i32 %57, 1
  br i1 %64, label %56, label %65, !llvm.loop !15

65:                                               ; preds = %62
  %66 = add nsw i64 %55, -1
  %67 = icmp sgt i64 %55, 1
  br i1 %67, label %54, label %70, !llvm.loop !16

68:                                               ; preds = %56
  %69 = trunc i64 %55 to i32
  br label %70

70:                                               ; preds = %65, %0, %12, %68, %48
  %71 = phi i32 [ %50, %48 ], [ %50, %68 ], [ undef, %12 ], [ undef, %0 ], [ %50, %65 ]
  %72 = phi i32 [ %49, %48 ], [ %49, %68 ], [ 1, %12 ], [ 1, %0 ], [ %49, %65 ]
  %73 = phi i32 [ %27, %48 ], [ %69, %68 ], [ %27, %12 ], [ %6, %0 ], [ 0, %65 ]
  %74 = phi i32 [ undef, %48 ], [ %57, %68 ], [ undef, %12 ], [ undef, %0 ], [ undef, %65 ]
  %75 = xor i32 %72, -1
  %76 = add i32 %73, %75
  %77 = add i32 %74, %71
  %78 = mul nsw i32 %77, %76
  %79 = call nonnull align 8 dereferenceable(8) %"class.std::basic_ostream"* @_ZNSolsEi(%"class.std::basic_ostream"* nonnull align 8 dereferenceable(8) @_ZSt4cout, i32 %78)
  call void @llvm.lifetime.end.p0i8(i64 4016016, i8* nonnull %4) #7
  call void @llvm.lifetime.end.p0i8(i64 4, i8* nonnull %3) #7
  ret i32 0
}

; Function Attrs: argmemonly mustprogress nofree nosync nounwind willreturn
declare void @llvm.lifetime.start.p0i8(i64 immarg, i8* nocapture) #4

; Function Attrs: argmemonly mustprogress nofree nounwind willreturn writeonly
declare void @llvm.memset.p0i8.i64(i8* nocapture writeonly, i8, i64, i1 immarg) #5

declare nonnull align 8 dereferenceable(16) %"class.std::basic_istream"* @_ZNSirsERi(%"class.std::basic_istream"* nonnull align 8 dereferenceable(16), i32* nonnull align 4 dereferenceable(4)) local_unnamed_addr #0

declare nonnull align 8 dereferenceable(8) %"class.std::basic_ostream"* @_ZNSolsEi(%"class.std::basic_ostream"* nonnull align 8 dereferenceable(8), i32) local_unnamed_addr #0

; Function Attrs: argmemonly mustprogress nofree nosync nounwind willreturn
declare void @llvm.lifetime.end.p0i8(i64 immarg, i8* nocapture) #4

; Function Attrs: sspstrong uwtable
define internal void @_GLOBAL__sub_I_2243.cpp() #6 section ".text.startup" {
  tail call void @_ZNSt8ios_base4InitC1Ev(%"class.std::ios_base::Init"* nonnull align 1 dereferenceable(1) @_ZStL8__ioinit)
  %1 = tail call i32 @__cxa_atexit(void (i8*)* bitcast (void (%"class.std::ios_base::Init"*)* @_ZNSt8ios_base4InitD1Ev to void (i8*)*), i8* getelementptr inbounds (%"class.std::ios_base::Init", %"class.std::ios_base::Init"* @_ZStL8__ioinit, i64 0, i32 0), i8* nonnull @__dso_handle) #7
  ret void
}


!llvm.module.flags = !{!0, !1, !2, !3}
!llvm.ident = !{!4}

!0 = !{i32 1, !"wchar_size", i32 4}
!1 = !{i32 7, !"PIC Level", i32 2}
!2 = !{i32 7, !"PIE Level", i32 2}
!3 = !{i32 7, !"uwtable", i32 1}
!4 = !{!"clang version 13.0.0"}
!5 = !{!6, !6, i64 0}
!6 = !{!"int", !7, i64 0}
!7 = !{!"omnipotent char", !8, i64 0}
!8 = !{!"Simple C++ TBAA"}
!9 = distinct !{!9, !10}
!10 = !{!"llvm.loop.mustprogress"}
!11 = distinct !{!11, !10, !12}
!12 = !{!"llvm.loop.unswitch.partial.disable"}
!13 = distinct !{!13, !10}
!14 = distinct !{!14, !10}
!15 = distinct !{!15, !10}
!16 = distinct !{!16, !10}
